target datalayout = "e-m:e-p270:32:32-p271:32:32-p272:64:64-i64:64-i128:128-f80:128-n8:16:32:64-S128"
target triple = "x86_64-pc-linux-gnu"

; Function Attrs: inlinehint mustprogress nounwind uwtable
define internal noundef signext i8 @_ZL9U_FAILURE10UErrorCode(i32 noundef %0) #2 {
  %2 = alloca i32, align 4
  store i32 %0, ptr %2, align 4, !tbaa !15
  %3 = load i32, ptr %2, align 4, !tbaa !15
  %4 = icmp sgt i32 %3, 0
  %5 = zext i1 %4 to i8
  ret i8 %5
}

; Function Attrs: mustprogress uwtable
define ptr @uprv_dl_open_77(ptr noundef %0, ptr noundef %1) #1 {
  %3 = alloca ptr, align 8
  %4 = alloca ptr, align 8
  %5 = alloca ptr, align 8
  %6 = alloca ptr, align 8
  %7 = alloca i32, align 4
  store ptr %0, ptr %4, align 8, !tbaa !17
  store ptr %1, ptr %5, align 8, !tbaa !22
  call void @llvm.lifetime.start.p0(i64 8, ptr %6) #14
  store ptr null, ptr %6, align 8, !tbaa !22
  %8 = load ptr, ptr %5, align 8, !tbaa !22
  %9 = load i32, ptr %8, align 4, !tbaa !15
  %10 = call noundef signext i8 @_ZL9U_FAILURE10UErrorCode(i32 noundef %9)
  %11 = icmp ne i8 %10, 0
  br i1 %11, label %12, label %14

12:                                               ; preds = %2
  %13 = load ptr, ptr %6, align 8, !tbaa !22
  store ptr %13, ptr %3, align 8
  store i32 1, ptr %7, align 4
  br label %23

14:                                               ; preds = %2
  %15 = load ptr, ptr %4, align 8, !tbaa !17
  %16 = call ptr @dlopen(ptr noundef %15, i32 noundef 258) #14
  store ptr %16, ptr %6, align 8, !tbaa !22
  %17 = load ptr, ptr %6, align 8, !tbaa !22
  %18 = icmp eq ptr %17, null
  br i1 %18, label %19, label %21

19:                                               ; preds = %14
  %20 = load ptr, ptr %5, align 8, !tbaa !22
  store i32 2, ptr %20, align 4, !tbaa !15
  br label %21

21:                                               ; preds = %19, %14
  %22 = load ptr, ptr %6, align 8, !tbaa !22
  store ptr %22, ptr %3, align 8
  store i32 1, ptr %7, align 4
  br label %23

23:                                               ; preds = %21, %12
  call void @llvm.lifetime.end.p0(i64 8, ptr %6) #14
  %24 = load ptr, ptr %3, align 8
  ret ptr %24
}