; Function Attrs: mustprogress nounwind uwtable
define ptr @uprv_dl_open_77(ptr noundef %0, ptr noundef captures(none) %1) local_unnamed_addr #0 {
  %3 = load i32, ptr %1, align 4, !tbaa !13
  %4 = icmp slt i32 %3, 1
  br i1 %4, label %5, label %9

5:                                                ; preds = %2
  %6 = tail call ptr @dlopen(ptr noundef %0, i32 noundef 258) #32
  %7 = icmp eq ptr %6, null
  br i1 %7, label %8, label %9

8:                                                ; preds = %5
  store i32 2, ptr %1, align 4, !tbaa !13
  br label %9

9:                                                ; preds = %5, %8, %2
  %.0 = phi ptr [ null, %2 ], [ null, %8 ], [ %6, %5 ]
  ret ptr %.0
}